; Function Attrs: mustprogress nofree norecurse nosync nounwind willreturn memory(read, inaccessiblemem: none) uwtable
define hidden noundef zeroext i8 @_ZN12HotSpotJVMCI26HotSpotStackFrameReference19objectsMaterializedEP8JVMCIEnvP7oopDesc(ptr nocapture noundef readnone %0, ptr noundef %1) local_unnamed_addr #6 align 2 {
  %3 = load i32, ptr @_ZN12HotSpotJVMCI26HotSpotStackFrameReference27_objectsMaterialized_offsetE, align 4
  %4 = ptrtoint ptr %1 to i64
  %5 = sext i32 %3 to i64
  %6 = add nsw i64 %5, %4
  %7 = inttoptr i64 %6 to ptr
  %8 = load i8, ptr %7, align 1
  ret i8 %8
}